target datalayout = "e-m:e-p270:32:32-p271:32:32-p272:64:64-i64:64-f80:128-n8:16:32:64-S128"
target triple = "x86_64-pc-linux-gnu"

@.str = private unnamed_addr constant [3 x i8] c"%d\00", align 1
@.str.1 = private unnamed_addr constant [6 x i8] c"%s %d\00", align 1
@.str.2 = private unnamed_addr constant [4 x i8] c"%s\0A\00", align 1

; Function Attrs: noinline nounwind uwtable
define dso_local i32 @main() #0 {
  %1 = alloca i32, align 4
  %2 = alloca i32, align 4
  %3 = alloca i32, align 4
  %4 = alloca i32, align 4
  %5 = alloca i32, align 4
  %6 = alloca [100 x i32], align 16
  %7 = alloca [100 x i32], align 16
  %8 = alloca i32, align 4
  %9 = alloca i32, align 4
  %10 = alloca [100 x [11 x i8]], align 16
  %11 = alloca [11 x i8], align 1
  store i32 0, i32* %1, align 4
  %12 = call i32 (i8*, ...) @__isoc99_scanf(i8* getelementptr inbounds ([3 x i8], [3 x i8]* @.str, i64 0, i64 0), i32* %2)
  store i32 0, i32* %3, align 4
  br label %13

13:                                               ; preds = %26, %0
  %14 = load i32, i32* %3, align 4
  %15 = load i32, i32* %2, align 4
  %16 = icmp slt i32 %14, %15
  br i1 %16, label %17, label %29

17:                                               ; preds = %13
  %18 = load i32, i32* %3, align 4
  %19 = sext i32 %18 to i64
  %20 = getelementptr inbounds [100 x [11 x i8]], [100 x [11 x i8]]* %10, i64 0, i64 %19
  %21 = getelementptr inbounds [11 x i8], [11 x i8]* %20, i64 0, i64 0
  %22 = load i32, i32* %3, align 4
  %23 = sext i32 %22 to i64
  %24 = getelementptr inbounds [100 x i32], [100 x i32]* %6, i64 0, i64 %23
  %25 = call i32 (i8*, ...) @__isoc99_scanf(i8* getelementptr inbounds ([6 x i8], [6 x i8]* @.str.1, i64 0, i64 0), i8* %21, i32* %24)
  br label %26

26:                                               ; preds = %17
  %27 = load i32, i32* %3, align 4
  %28 = add nsw i32 %27, 1
  store i32 %28, i32* %3, align 4
  br label %13

29:                                               ; preds = %13
  store i32 0, i32* %3, align 4
  br label %30

30:                                               ; preds = %39, %29
  %31 = load i32, i32* %3, align 4
  %32 = load i32, i32* %2, align 4
  %33 = icmp slt i32 %31, %32
  br i1 %33, label %34, label %42

34:                                               ; preds = %30
  %35 = load i32, i32* %3, align 4
  %36 = load i32, i32* %3, align 4
  %37 = sext i32 %36 to i64
  %38 = getelementptr inbounds [100 x i32], [100 x i32]* %7, i64 0, i64 %37
  store i32 %35, i32* %38, align 4
  br label %39

39:                                               ; preds = %34
  %40 = load i32, i32* %3, align 4
  %41 = add nsw i32 %40, 1
  store i32 %41, i32* %3, align 4
  br label %30

42:                                               ; preds = %30
  store i32 0, i32* %3, align 4
  br label %43

43:                                               ; preds = %129, %42
  %44 = load i32, i32* %3, align 4
  %45 = load i32, i32* %2, align 4
  %46 = icmp slt i32 %44, %45
  br i1 %46, label %47, label %132

47:                                               ; preds = %43
  store i32 0, i32* %4, align 4
  br label %48

48:                                               ; preds = %125, %47
  %49 = load i32, i32* %4, align 4
  %50 = load i32, i32* %2, align 4
  %51 = sub nsw i32 %50, 1
  %52 = load i32, i32* %3, align 4
  %53 = sub nsw i32 %51, %52
  %54 = icmp slt i32 %49, %53
  br i1 %54, label %55, label %128

55:                                               ; preds = %48
  %56 = load i32, i32* %4, align 4
  %57 = sext i32 %56 to i64
  %58 = getelementptr inbounds [100 x i32], [100 x i32]* %6, i64 0, i64 %57
  %59 = load i32, i32* %58, align 4
  %60 = load i32, i32* %4, align 4
  %61 = add nsw i32 %60, 1
  %62 = sext i32 %61 to i64
  %63 = getelementptr inbounds [100 x i32], [100 x i32]* %6, i64 0, i64 %62
  %64 = load i32, i32* %63, align 4
  %65 = icmp slt i32 %59, %64
  br i1 %65, label %66, label %124

66:                                               ; preds = %55
  %67 = load i32, i32* %4, align 4
  %68 = sext i32 %67 to i64
  %69 = getelementptr inbounds [100 x i32], [100 x i32]* %6, i64 0, i64 %68
  %70 = load i32, i32* %69, align 4
  store i32 %70, i32* %8, align 4
  %71 = load i32, i32* %4, align 4
  %72 = add nsw i32 %71, 1
  %73 = sext i32 %72 to i64
  %74 = getelementptr inbounds [100 x i32], [100 x i32]* %6, i64 0, i64 %73
  %75 = load i32, i32* %74, align 4
  %76 = load i32, i32* %4, align 4
  %77 = sext i32 %76 to i64
  %78 = getelementptr inbounds [100 x i32], [100 x i32]* %6, i64 0, i64 %77
  store i32 %75, i32* %78, align 4
  %79 = load i32, i32* %8, align 4
  %80 = load i32, i32* %4, align 4
  %81 = add nsw i32 %80, 1
  %82 = sext i32 %81 to i64
  %83 = getelementptr inbounds [100 x i32], [100 x i32]* %6, i64 0, i64 %82
  store i32 %79, i32* %83, align 4
  %84 = load i32, i32* %4, align 4
  %85 = sext i32 %84 to i64
  %86 = getelementptr inbounds [100 x i32], [100 x i32]* %7, i64 0, i64 %85
  %87 = load i32, i32* %86, align 4
  store i32 %87, i32* %9, align 4
  %88 = load i32, i32* %4, align 4
  %89 = add nsw i32 %88, 1
  %90 = sext i32 %89 to i64
  %91 = getelementptr inbounds [100 x i32], [100 x i32]* %7, i64 0, i64 %90
  %92 = load i32, i32* %91, align 4
  %93 = load i32, i32* %4, align 4
  %94 = sext i32 %93 to i64
  %95 = getelementptr inbounds [100 x i32], [100 x i32]* %7, i64 0, i64 %94
  store i32 %92, i32* %95, align 4
  %96 = load i32, i32* %9, align 4
  %97 = load i32, i32* %4, align 4
  %98 = add nsw i32 %97, 1
  %99 = sext i32 %98 to i64
  %100 = getelementptr inbounds [100 x i32], [100 x i32]* %7, i64 0, i64 %99
  store i32 %96, i32* %100, align 4
  %101 = getelementptr inbounds [11 x i8], [11 x i8]* %11, i64 0, i64 0
  %102 = load i32, i32* %4, align 4
  %103 = sext i32 %102 to i64
  %104 = getelementptr inbounds [100 x [11 x i8]], [100 x [11 x i8]]* %10, i64 0, i64 %103
  %105 = getelementptr inbounds [11 x i8], [11 x i8]* %104, i64 0, i64 0
  %106 = call i8* @strcpy(i8* %101, i8* %105) #3
  %107 = load i32, i32* %4, align 4
  %108 = sext i32 %107 to i64
  %109 = getelementptr inbounds [100 x [11 x i8]], [100 x [11 x i8]]* %10, i64 0, i64 %108
  %110 = getelementptr inbounds [11 x i8], [11 x i8]* %109, i64 0, i64 0
  %111 = load i32, i32* %4, align 4
  %112 = add nsw i32 %111, 1
  %113 = sext i32 %112 to i64
  %114 = getelementptr inbounds [100 x [11 x i8]], [100 x [11 x i8]]* %10, i64 0, i64 %113
  %115 = getelementptr inbounds [11 x i8], [11 x i8]* %114, i64 0, i64 0
  %116 = call i8* @strcpy(i8* %110, i8* %115) #3
  %117 = load i32, i32* %4, align 4
  %118 = add nsw i32 %117, 1
  %119 = sext i32 %118 to i64
  %120 = getelementptr inbounds [100 x [11 x i8]], [100 x [11 x i8]]* %10, i64 0, i64 %119
  %121 = getelementptr inbounds [11 x i8], [11 x i8]* %120, i64 0, i64 0
  %122 = getelementptr inbounds [11 x i8], [11 x i8]* %11, i64 0, i64 0
  %123 = call i8* @strcpy(i8* %121, i8* %122) #3
  br label %124

124:                                              ; preds = %66, %55
  br label %125

125:                                              ; preds = %124
  %126 = load i32, i32* %4, align 4
  %127 = add nsw i32 %126, 1
  store i32 %127, i32* %4, align 4
  br label %48

128:                                              ; preds = %48
  br label %129

129:                                              ; preds = %128
  %130 = load i32, i32* %3, align 4
  %131 = add nsw i32 %130, 1
  store i32 %131, i32* %3, align 4
  br label %43

132:                                              ; preds = %43
  store i32 0, i32* %4, align 4
  br label %133

133:                                              ; preds = %139, %132
  %134 = load i32, i32* %4, align 4
  %135 = sext i32 %134 to i64
  %136 = getelementptr inbounds [100 x i32], [100 x i32]* %6, i64 0, i64 %135
  %137 = load i32, i32* %136, align 4
  %138 = icmp sge i32 %137, 60
  br i1 %138, label %139, label %146

139:                                              ; preds = %133
  %140 = load i32, i32* %4, align 4
  %141 = add nsw i32 %140, 1
  store i32 %141, i32* %4, align 4
  %142 = sext i32 %140 to i64
  %143 = getelementptr inbounds [100 x [11 x i8]], [100 x [11 x i8]]* %10, i64 0, i64 %142
  %144 = getelementptr inbounds [11 x i8], [11 x i8]* %143, i64 0, i64 0
  %145 = call i32 (i8*, ...) @printf(i8* getelementptr inbounds ([4 x i8], [4 x i8]* @.str.2, i64 0, i64 0), i8* %144)
  br label %133

146:                                              ; preds = %133
  %147 = load i32, i32* %4, align 4
  store i32 %147, i32* %5, align 4
  %148 = load i32, i32* %5, align 4
  store i32 %148, i32* %3, align 4
  br label %149

149:                                              ; preds = %217, %146
  %150 = load i32, i32* %3, align 4
  %151 = load i32, i32* %2, align 4
  %152 = icmp slt i32 %150, %151
  br i1 %152, label %153, label %220

153:                                              ; preds = %149
  %154 = load i32, i32* %5, align 4
  store i32 %154, i32* %4, align 4
  br label %155

155:                                              ; preds = %213, %153
  %156 = load i32, i32* %4, align 4
  %157 = load i32, i32* %2, align 4
  %158 = sub nsw i32 %157, 1
  %159 = icmp slt i32 %156, %158
  br i1 %159, label %160, label %216

160:                                              ; preds = %155
  %161 = load i32, i32* %4, align 4
  %162 = sext i32 %161 to i64
  %163 = getelementptr inbounds [100 x i32], [100 x i32]* %7, i64 0, i64 %162
  %164 = load i32, i32* %163, align 4
  %165 = load i32, i32* %4, align 4
  %166 = add nsw i32 %165, 1
  %167 = sext i32 %166 to i64
  %168 = getelementptr inbounds [100 x i32], [100 x i32]* %7, i64 0, i64 %167
  %169 = load i32, i32* %168, align 4
  %170 = icmp sgt i32 %164, %169
  br i1 %170, label %171, label %212

171:                                              ; preds = %160
  %172 = getelementptr inbounds [11 x i8], [11 x i8]* %11, i64 0, i64 0
  %173 = load i32, i32* %4, align 4
  %174 = sext i32 %173 to i64
  %175 = getelementptr inbounds [100 x [11 x i8]], [100 x [11 x i8]]* %10, i64 0, i64 %174
  %176 = getelementptr inbounds [11 x i8], [11 x i8]* %175, i64 0, i64 0
  %177 = call i8* @strcpy(i8* %172, i8* %176) #3
  %178 = load i32, i32* %4, align 4
  %179 = sext i32 %178 to i64
  %180 = getelementptr inbounds [100 x [11 x i8]], [100 x [11 x i8]]* %10, i64 0, i64 %179
  %181 = getelementptr inbounds [11 x i8], [11 x i8]* %180, i64 0, i64 0
  %182 = load i32, i32* %4, align 4
  %183 = add nsw i32 %182, 1
  %184 = sext i32 %183 to i64
  %185 = getelementptr inbounds [100 x [11 x i8]], [100 x [11 x i8]]* %10, i64 0, i64 %184
  %186 = getelementptr inbounds [11 x i8], [11 x i8]* %185, i64 0, i64 0
  %187 = call i8* @strcpy(i8* %181, i8* %186) #3
  %188 = load i32, i32* %4, align 4
  %189 = add nsw i32 %188, 1
  %190 = sext i32 %189 to i64
  %191 = getelementptr inbounds [100 x [11 x i8]], [100 x [11 x i8]]* %10, i64 0, i64 %190
  %192 = getelementptr inbounds [11 x i8], [11 x i8]* %191, i64 0, i64 0
  %193 = getelementptr inbounds [11 x i8], [11 x i8]* %11, i64 0, i64 0
  %194 = call i8* @strcpy(i8* %192, i8* %193) #3
  %195 = load i32, i32* %4, align 4
  %196 = sext i32 %195 to i64
  %197 = getelementptr inbounds [100 x i32], [100 x i32]* %7, i64 0, i64 %196
  %198 = load i32, i32* %197, align 4
  store i32 %198, i32* %9, align 4
  %199 = load i32, i32* %4, align 4
  %200 = add nsw i32 %199, 1
  %201 = sext i32 %200 to i64
  %202 = getelementptr inbounds [100 x i32], [100 x i32]* %7, i64 0, i64 %201
  %203 = load i32, i32* %202, align 4
  %204 = load i32, i32* %4, align 4
  %205 = sext i32 %204 to i64
  %206 = getelementptr inbounds [100 x i32], [100 x i32]* %7, i64 0, i64 %205
  store i32 %203, i32* %206, align 4
  %207 = load i32, i32* %9, align 4
  %208 = load i32, i32* %4, align 4
  %209 = add nsw i32 %208, 1
  %210 = sext i32 %209 to i64
  %211 = getelementptr inbounds [100 x i32], [100 x i32]* %7, i64 0, i64 %210
  store i32 %207, i32* %211, align 4
  br label %212

212:                                              ; preds = %171, %160
  br label %213

213:                                              ; preds = %212
  %214 = load i32, i32* %4, align 4
  %215 = add nsw i32 %214, 1
  store i32 %215, i32* %4, align 4
  br label %155

216:                                              ; preds = %155
  br label %217

217:                                              ; preds = %216
  %218 = load i32, i32* %3, align 4
  %219 = add nsw i32 %218, 1
  store i32 %219, i32* %3, align 4
  br label %149

220:                                              ; preds = %149
  %221 = load i32, i32* %5, align 4
  store i32 %221, i32* %4, align 4
  br label %222

222:                                              ; preds = %232, %220
  %223 = load i32, i32* %4, align 4
  %224 = load i32, i32* %2, align 4
  %225 = icmp slt i32 %223, %224
  br i1 %225, label %226, label %235

226:                                              ; preds = %222
  %227 = load i32, i32* %4, align 4
  %228 = sext i32 %227 to i64
  %229 = getelementptr inbounds [100 x [11 x i8]], [100 x [11 x i8]]* %10, i64 0, i64 %228
  %230 = getelementptr inbounds [11 x i8], [11 x i8]* %229, i64 0, i64 0
  %231 = call i32 (i8*, ...) @printf(i8* getelementptr inbounds ([4 x i8], [4 x i8]* @.str.2, i64 0, i64 0), i8* %230)
  br label %232

232:                                              ; preds = %226
  %233 = load i32, i32* %4, align 4
  %234 = add nsw i32 %233, 1
  store i32 %234, i32* %4, align 4
  br label %222

235:                                              ; preds = %222
  ret i32 0
}